; Function Attrs: mustprogress nofree norecurse nosync nounwind memory(read, argmem: readwrite, inaccessiblemem: none) uwtable
define noundef i32 @_ZN6icu_775Edits8Iterator31sourceIndexFromDestinationIndexEiR10UErrorCode(ptr noundef nonnull align 8 dereferenceable(48) %0, i32 noundef %1, ptr noundef nonnull readonly align 4 captures(none) dereferenceable(4) %2) local_unnamed_addr #13 align 2 {
  %4 = tail call noundef i32 @_ZN6icu_775Edits8Iterator9findIndexEiaR10UErrorCode(ptr noundef nonnull align 8 dereferenceable(48) %0, i32 noundef %1, i8 noundef signext 0, ptr noundef nonnull align 4 dereferenceable(4) %2)
  %5 = icmp slt i32 %4, 0
  br i1 %5, label %26, label %6

6:                                                ; preds = %3
  %.not = icmp eq i32 %4, 0
  br i1 %.not, label %7, label %11

7:                                                ; preds = %6
  %8 = getelementptr inbounds nuw i8, ptr %0, i64 40
  %9 = load i32, ptr %8, align 8, !tbaa !46
  %10 = icmp eq i32 %1, %9
  br i1 %10, label %11, label %14

11:                                               ; preds = %7, %6
  %12 = getelementptr inbounds nuw i8, ptr %0, i64 32
  %13 = load i32, ptr %12, align 8, !tbaa !44
  br label %26

14:                                               ; preds = %7
  %15 = getelementptr inbounds nuw i8, ptr %0, i64 23
  %16 = load i8, ptr %15, align 1, !tbaa !38
  %.not10 = icmp eq i8 %16, 0
  %17 = getelementptr inbounds nuw i8, ptr %0, i64 32
  %18 = load i32, ptr %17, align 8, !tbaa !44
  br i1 %.not10, label %23, label %19

19:                                               ; preds = %14
  %20 = getelementptr inbounds nuw i8, ptr %0, i64 24
  %21 = load i32, ptr %20, align 8, !tbaa !35
  %22 = add nsw i32 %21, %18
  br label %26

23:                                               ; preds = %14
  %24 = sub i32 %1, %9
  %25 = add nsw i32 %24, %18
  br label %26

26:                                               ; preds = %3, %23, %19, %11
  %.0 = phi i32 [ %13, %11 ], [ %22, %19 ], [ %25, %23 ], [ 0, %3 ]
  ret i32 %.0
}